; ModuleID = '52/1353.c'
source_filename = "52/1353.c"
target datalayout = "e-m:e-p270:32:32-p271:32:32-p272:64:64-i64:64-f80:128-n8:16:32:64-S128"
target triple = "x86_64-pc-linux-gnu"

@.str = private unnamed_addr constant [6 x i8] c"%d %d\00", align 1
@.str.1 = private unnamed_addr constant [3 x i8] c"%d\00", align 1
@.str.2 = private unnamed_addr constant [4 x i8] c"%d \00", align 1
@.str.3 = private unnamed_addr constant [2 x i8] c"\0A\00", align 1

; Function Attrs: noinline nounwind uwtable
define dso_local void @main() #0 {
  %1 = alloca [100 x i32], align 16
  %2 = alloca i32, align 4
  %3 = alloca i32, align 4
  %4 = alloca i32, align 4
  %5 = alloca i32*, align 8
  %6 = alloca i32, align 4
  %7 = alloca i32, align 4
  %8 = call i32 (i8*, ...) @__isoc99_scanf(i8* getelementptr inbounds ([6 x i8], [6 x i8]* @.str, i64 0, i64 0), i32* %2, i32* %3)
  store i32 0, i32* %4, align 4
  br label %9

9:                                                ; preds = %18, %0
  %10 = load i32, i32* %4, align 4
  %11 = load i32, i32* %2, align 4
  %12 = icmp slt i32 %10, %11
  br i1 %12, label %13, label %21

13:                                               ; preds = %9
  %14 = load i32, i32* %4, align 4
  %15 = sext i32 %14 to i64
  %16 = getelementptr inbounds [100 x i32], [100 x i32]* %1, i64 0, i64 %15
  %17 = call i32 (i8*, ...) @__isoc99_scanf(i8* getelementptr inbounds ([3 x i8], [3 x i8]* @.str.1, i64 0, i64 0), i32* %16)
  br label %18

18:                                               ; preds = %13
  %19 = load i32, i32* %4, align 4
  %20 = add nsw i32 %19, 1
  store i32 %20, i32* %4, align 4
  br label %9

21:                                               ; preds = %9
  %22 = getelementptr inbounds [100 x i32], [100 x i32]* %1, i64 0, i64 0
  store i32* %22, i32** %5, align 8
  store i32 1, i32* %4, align 4
  br label %23

23:                                               ; preds = %56, %21
  %24 = load i32, i32* %4, align 4
  %25 = load i32, i32* %3, align 4
  %26 = icmp sle i32 %24, %25
  br i1 %26, label %27, label %59

27:                                               ; preds = %23
  %28 = load i32*, i32** %5, align 8
  %29 = load i32, i32* %2, align 4
  %30 = sext i32 %29 to i64
  %31 = getelementptr inbounds i32, i32* %28, i64 %30
  %32 = getelementptr inbounds i32, i32* %31, i64 -1
  %33 = load i32, i32* %32, align 4
  store i32 %33, i32* %7, align 4
  %34 = load i32, i32* %2, align 4
  %35 = sub nsw i32 %34, 1
  store i32 %35, i32* %6, align 4
  br label %36

36:                                               ; preds = %50, %27
  %37 = load i32, i32* %6, align 4
  %38 = icmp sge i32 %37, 1
  br i1 %38, label %39, label %53

39:                                               ; preds = %36
  %40 = load i32*, i32** %5, align 8
  %41 = load i32, i32* %6, align 4
  %42 = sext i32 %41 to i64
  %43 = getelementptr inbounds i32, i32* %40, i64 %42
  %44 = getelementptr inbounds i32, i32* %43, i64 -1
  %45 = load i32, i32* %44, align 4
  %46 = load i32*, i32** %5, align 8
  %47 = load i32, i32* %6, align 4
  %48 = sext i32 %47 to i64
  %49 = getelementptr inbounds i32, i32* %46, i64 %48
  store i32 %45, i32* %49, align 4
  br label %50

50:                                               ; preds = %39
  %51 = load i32, i32* %6, align 4
  %52 = add nsw i32 %51, -1
  store i32 %52, i32* %6, align 4
  br label %36

53:                                               ; preds = %36
  %54 = load i32, i32* %7, align 4
  %55 = load i32*, i32** %5, align 8
  store i32 %54, i32* %55, align 4
  br label %56

56:                                               ; preds = %53
  %57 = load i32, i32* %4, align 4
  %58 = add nsw i32 %57, 1
  store i32 %58, i32* %4, align 4
  br label %23

59:                                               ; preds = %23
  store i32 1, i32* %4, align 4
  br label %60

60:                                               ; preds = %73, %59
  %61 = load i32, i32* %4, align 4
  %62 = load i32, i32* %2, align 4
  %63 = sub nsw i32 %62, 1
  %64 = icmp sle i32 %61, %63
  br i1 %64, label %65, label %76

65:                                               ; preds = %60
  %66 = load i32*, i32** %5, align 8
  %67 = load i32, i32* %4, align 4
  %68 = sext i32 %67 to i64
  %69 = getelementptr inbounds i32, i32* %66, i64 %68
  %70 = getelementptr inbounds i32, i32* %69, i64 -1
  %71 = load i32, i32* %70, align 4
  %72 = call i32 (i8*, ...) @printf(i8* getelementptr inbounds ([4 x i8], [4 x i8]* @.str.2, i64 0, i64 0), i32 %71)
  br label %73

73:                                               ; preds = %65
  %74 = load i32, i32* %4, align 4
  %75 = add nsw i32 %74, 1
  store i32 %75, i32* %4, align 4
  br label %60

76:                                               ; preds = %60
  %77 = load i32*, i32** %5, align 8
  %78 = load i32, i32* %2, align 4
  %79 = sext i32 %78 to i64
  %80 = getelementptr inbounds i32, i32* %77, i64 %79
  %81 = getelementptr inbounds i32, i32* %80, i64 -1
  %82 = load i32, i32* %81, align 4
  %83 = call i32 (i8*, ...) @printf(i8* getelementptr inbounds ([3 x i8], [3 x i8]* @.str.1, i64 0, i64 0), i32 %82)
  %84 = call i32 (i8*, ...) @printf(i8* getelementptr inbounds ([2 x i8], [2 x i8]* @.str.3, i64 0, i64 0))
  ret void
}

declare dso_local i32 @__isoc99_scanf(i8*, ...) #1

declare dso_local i32 @printf(i8*, ...) #1


!llvm.module.flags = !{!0}
!llvm.ident = !{!1}

!0 = !{i32 1, !"wchar_size", i32 4}
!1 = !{!"clang version 10.0.0-4ubuntu1 "}
